; Function Attrs: mustprogress nofree norecurse nosync nounwind willreturn memory(readwrite, inaccessiblemem: none) uwtable
define internal noundef ptr @ga_unpacked_tuple_args(ptr noundef readonly captures(none) %0, ptr readnone captures(none) %1) #3 {
  %3 = getelementptr inbounds nuw i8, ptr %0, i64 48
  %4 = load i8, ptr %3, align 8, !tbaa !28, !range !31, !noundef !32
  %5 = trunc nuw i8 %4 to i1
  br i1 %5, label %6, label %_Py_NewRef.exit

6:                                                ; preds = %2
  %7 = getelementptr inbounds nuw i8, ptr %0, i64 16
  %8 = load ptr, ptr %7, align 8, !tbaa !33
  %9 = icmp eq ptr %8, @PyTuple_Type
  br i1 %9, label %10, label %_Py_NewRef.exit

10:                                               ; preds = %6
  %11 = getelementptr inbounds nuw i8, ptr %0, i64 24
  %12 = load ptr, ptr %11, align 8, !tbaa !34
  %13 = load i32, ptr %12, align 8, !tbaa !23
  %14 = icmp slt i32 %13, 0
  br i1 %14, label %_Py_NewRef.exit, label %15

15:                                               ; preds = %10
  %16 = add nuw i32 %13, 1
  store i32 %16, ptr %12, align 8, !tbaa !23
  br label %_Py_NewRef.exit

_Py_NewRef.exit:                                  ; preds = %15, %10, %2, %6
  %.0 = phi ptr [ @_Py_NoneStruct, %6 ], [ @_Py_NoneStruct, %2 ], [ %12, %10 ], [ %12, %15 ]
  ret ptr %.0
}